target datalayout = "e-m:e-p270:32:32-p271:32:32-p272:64:64-i64:64-i128:128-f80:128-n8:16:32:64-S128"
target triple = "x86_64-unknown-linux-gnu"

%"struct.OpenImageIO_v2_6_0::TypeDesc" = type { i8, i8, i8, i8, i32 }
%"class.OpenImageIO_v2_6_0::RLAInput" = type <{ %"class.OpenImageIO_v2_6_0::ImageInput", %"class.std::__cxx11::basic_string", %"struct.OpenImageIO_v2_6_0::RLA_pvt::RLAHeader", [4 x i8], %"class.std::vector.16", i32, [4 x i8], %"class.std::vector.21", i32, [4 x i8] }>
%"class.OpenImageIO_v2_6_0::ImageInput" = type { ptr, %"class.OpenImageIO_v2_6_0::ImageSpec", %"class.std::unique_ptr" }
%"class.OpenImageIO_v2_6_0::ImageSpec" = type { i32, i32, i32, i32, i32, i32, i32, i32, i32, i32, i32, i32, i32, i32, i32, i32, %"struct.OpenImageIO_v2_6_0::TypeDesc", %"class.std::vector", %"class.std::vector.0", i32, i32, i8, %"class.OpenImageIO_v2_6_0::ParamValueList" }
%"class.std::vector" = type { %"struct.std::_Vector_base" }
%"struct.std::_Vector_base" = type { %"struct.std::_Vector_base<OpenImageIO_v2_6_0::TypeDesc, std::allocator<OpenImageIO_v2_6_0::TypeDesc>>::_Vector_impl" }
%"struct.std::_Vector_base<OpenImageIO_v2_6_0::TypeDesc, std::allocator<OpenImageIO_v2_6_0::TypeDesc>>::_Vector_impl" = type { %"struct.std::_Vector_base<OpenImageIO_v2_6_0::TypeDesc, std::allocator<OpenImageIO_v2_6_0::TypeDesc>>::_Vector_impl_data" }
%"struct.std::_Vector_base<OpenImageIO_v2_6_0::TypeDesc, std::allocator<OpenImageIO_v2_6_0::TypeDesc>>::_Vector_impl_data" = type { ptr, ptr, ptr }
%"class.std::vector.0" = type { %"struct.std::_Vector_base.1" }
%"struct.std::_Vector_base.1" = type { %"struct.std::_Vector_base<std::__cxx11::basic_string<char>, std::allocator<std::__cxx11::basic_string<char>>>::_Vector_impl" }
%"struct.std::_Vector_base<std::__cxx11::basic_string<char>, std::allocator<std::__cxx11::basic_string<char>>>::_Vector_impl" = type { %"struct.std::_Vector_base<std::__cxx11::basic_string<char>, std::allocator<std::__cxx11::basic_string<char>>>::_Vector_impl_data" }
%"struct.std::_Vector_base<std::__cxx11::basic_string<char>, std::allocator<std::__cxx11::basic_string<char>>>::_Vector_impl_data" = type { ptr, ptr, ptr }
%"class.OpenImageIO_v2_6_0::ParamValueList" = type { %"class.std::vector.5" }
%"class.std::vector.5" = type { %"struct.std::_Vector_base.6" }
%"struct.std::_Vector_base.6" = type { %"struct.std::_Vector_base<OpenImageIO_v2_6_0::ParamValue, std::allocator<OpenImageIO_v2_6_0::ParamValue>>::_Vector_impl" }
%"struct.std::_Vector_base<OpenImageIO_v2_6_0::ParamValue, std::allocator<OpenImageIO_v2_6_0::ParamValue>>::_Vector_impl" = type { %"struct.std::_Vector_base<OpenImageIO_v2_6_0::ParamValue, std::allocator<OpenImageIO_v2_6_0::ParamValue>>::_Vector_impl_data" }
%"struct.std::_Vector_base<OpenImageIO_v2_6_0::ParamValue, std::allocator<OpenImageIO_v2_6_0::ParamValue>>::_Vector_impl_data" = type { ptr, ptr, ptr }
%"class.std::unique_ptr" = type { %"struct.std::__uniq_ptr_data" }
%"struct.std::__uniq_ptr_data" = type { %"class.std::__uniq_ptr_impl" }
%"class.std::__uniq_ptr_impl" = type { %"class.std::tuple" }
%"class.std::tuple" = type { %"struct.std::_Tuple_impl" }
%"struct.std::_Tuple_impl" = type { %"struct.std::_Tuple_impl.10", %"struct.std::_Head_base.11" }
%"struct.std::_Tuple_impl.10" = type { %"struct.std::_Head_base" }
%"struct.std::_Head_base" = type { ptr }
%"struct.std::_Head_base.11" = type { ptr }
%"class.std::__cxx11::basic_string" = type { %"struct.std::__cxx11::basic_string<char>::_Alloc_hider", i64, %union.anon.15 }
%"struct.std::__cxx11::basic_string<char>::_Alloc_hider" = type { ptr }
%union.anon.15 = type { i64, [8 x i8] }
%"struct.OpenImageIO_v2_6_0::RLA_pvt::RLAHeader" = type { i16, i16, i16, i16, i16, i16, i16, i16, i16, i16, i16, i16, i16, i16, [16 x i8], [24 x i8], [24 x i8], [24 x i8], [24 x i8], i32, [128 x i8], [128 x i8], [64 x i8], [32 x i8], [32 x i8], [20 x i8], [24 x i8], [8 x i8], [32 x i8], i16, [12 x i8], [32 x i8], i16, i16, i16, i16, i16, [32 x i8], [36 x i8], i32 }
%"class.std::vector.16" = type { %"struct.std::_Vector_base.17" }
%"struct.std::_Vector_base.17" = type { %"struct.std::_Vector_base<unsigned char, std::allocator<unsigned char>>::_Vector_impl" }
%"struct.std::_Vector_base<unsigned char, std::allocator<unsigned char>>::_Vector_impl" = type { %"struct.std::_Vector_base<unsigned char, std::allocator<unsigned char>>::_Vector_impl_data" }
%"struct.std::_Vector_base<unsigned char, std::allocator<unsigned char>>::_Vector_impl_data" = type { ptr, ptr, ptr }
%"class.std::vector.21" = type { %"struct.std::_Vector_base.22" }
%"struct.std::_Vector_base.22" = type { %"struct.std::_Vector_base<unsigned int, std::allocator<unsigned int>>::_Vector_impl" }
%"struct.std::_Vector_base<unsigned int, std::allocator<unsigned int>>::_Vector_impl" = type { %"struct.std::_Vector_base<unsigned int, std::allocator<unsigned int>>::_Vector_impl_data" }
%"struct.std::_Vector_base<unsigned int, std::allocator<unsigned int>>::_Vector_impl_data" = type { ptr, ptr, ptr }
%"class.std::lock_guard" = type { ptr }

; Function Attrs: mustprogress nounwind uwtable
define linkonce_odr noundef nonnull align 1 dereferenceable(1) ptr @_ZNSt6vectorIhSaIhEEixEm(ptr noundef nonnull align 8 dereferenceable(24) %this, i64 noundef %__n) #4 comdat align 2 {
entry:
  %this.addr = alloca ptr, align 8
  %__n.addr = alloca i64, align 8
  store ptr %this, ptr %this.addr, align 8
  store i64 %__n, ptr %__n.addr, align 8
  %this1 = load ptr, ptr %this.addr, align 8
  %_M_impl = getelementptr inbounds %"struct.std::_Vector_base.17", ptr %this1, i32 0, i32 0
  %_M_start = getelementptr inbounds %"struct.std::_Vector_base<unsigned char, std::allocator<unsigned char>>::_Vector_impl_data", ptr %_M_impl, i32 0, i32 0
  %0 = load ptr, ptr %_M_start, align 8
  %1 = load i64, ptr %__n.addr, align 8
  %add.ptr = getelementptr inbounds i8, ptr %0, i64 %1
  ret ptr %add.ptr
}

; Function Attrs: mustprogress nounwind uwtable
define linkonce_odr noundef nonnull align 4 dereferenceable(4) ptr @_ZNSt6vectorIjSaIjEEixEm(ptr noundef nonnull align 8 dereferenceable(24) %this, i64 noundef %__n) #4 comdat align 2 {
entry:
  %this.addr = alloca ptr, align 8
  %__n.addr = alloca i64, align 8
  store ptr %this, ptr %this.addr, align 8
  store i64 %__n, ptr %__n.addr, align 8
  %this1 = load ptr, ptr %this.addr, align 8
  %_M_impl = getelementptr inbounds %"struct.std::_Vector_base.22", ptr %this1, i32 0, i32 0
  %_M_start = getelementptr inbounds %"struct.std::_Vector_base<unsigned int, std::allocator<unsigned int>>::_Vector_impl_data", ptr %_M_impl, i32 0, i32 0
  %0 = load ptr, ptr %_M_start, align 8
  %1 = load i64, ptr %__n.addr, align 8
  %add.ptr = getelementptr inbounds i32, ptr %0, i64 %1
  ret ptr %add.ptr
}

; Function Attrs: mustprogress nounwind uwtable
define linkonce_odr void @_ZNSt10lock_guardIRKN18OpenImageIO_v2_6_010ImageInputEED2Ev(ptr noundef nonnull align 8 dereferenceable(8) %this) unnamed_addr #4 comdat align 2 personality ptr @__gxx_personality_v0 {
entry:
  %this.addr = alloca ptr, align 8
  store ptr %this, ptr %this.addr, align 8
  %this1 = load ptr, ptr %this.addr, align 8
  %_M_device = getelementptr inbounds %"class.std::lock_guard", ptr %this1, i32 0, i32 0
  %0 = load ptr, ptr %_M_device, align 8
  invoke void @_ZNK18OpenImageIO_v2_6_010ImageInput6unlockEv(ptr noundef nonnull align 8 dereferenceable(184) %0)
          to label %invoke.cont unwind label %terminate.lpad

invoke.cont:                                      ; preds = %entry
  ret void

terminate.lpad:                                   ; preds = %entry
  %1 = landingpad { ptr, i32 }
          catch ptr null
  %2 = extractvalue { ptr, i32 } %1, 0
  call void @__clang_call_terminate(ptr %2) #18
  unreachable
}

; Function Attrs: mustprogress uwtable
define linkonce_odr void @_ZNSt10lock_guardIRKN18OpenImageIO_v2_6_010ImageInputEEC2ES3_(ptr noundef nonnull align 8 dereferenceable(8) %this, ptr noundef nonnull align 8 dereferenceable(184) %__m) unnamed_addr #6 comdat align 2 {
entry:
  %this.addr = alloca ptr, align 8
  %__m.addr = alloca ptr, align 8
  store ptr %this, ptr %this.addr, align 8
  store ptr %__m, ptr %__m.addr, align 8
  %this1 = load ptr, ptr %this.addr, align 8
  %_M_device = getelementptr inbounds %"class.std::lock_guard", ptr %this1, i32 0, i32 0
  %0 = load ptr, ptr %__m.addr, align 8
  store ptr %0, ptr %_M_device, align 8
  %_M_device2 = getelementptr inbounds %"class.std::lock_guard", ptr %this1, i32 0, i32 0
  %1 = load ptr, ptr %_M_device2, align 8
  call void @_ZNK18OpenImageIO_v2_6_010ImageInput4lockEv(ptr noundef nonnull align 8 dereferenceable(184) %1)
  ret void
}

; Function Attrs: mustprogress uwtable
define hidden noundef zeroext i1 @_ZN18OpenImageIO_v2_6_08RLAInput20read_native_scanlineEiiiiPv(ptr noundef nonnull align 8 dereferenceable(1024) %this, i32 noundef %subimage, i32 noundef %miplevel, i32 noundef %y, i32 noundef %0, ptr noundef %data) unnamed_addr #6 align 2 personality ptr @__gxx_personality_v0 {
entry:
  %retval = alloca i1, align 1
  %this.addr = alloca ptr, align 8
  %subimage.addr = alloca i32, align 4
  %miplevel.addr = alloca i32, align 4
  %y.addr = alloca i32, align 4
  %.addr = alloca i32, align 4
  %data.addr = alloca ptr, align 8
  %lock = alloca %"class.std::lock_guard", align 8
  %exn.slot = alloca ptr, align 8
  %ehselector.slot = alloca i32, align 4
  %cleanup.dest.slot = alloca i32, align 4
  %size = alloca i64, align 8
  store ptr %this, ptr %this.addr, align 8
  store i32 %subimage, ptr %subimage.addr, align 4
  store i32 %miplevel, ptr %miplevel.addr, align 4
  store i32 %y, ptr %y.addr, align 4
  store i32 %0, ptr %.addr, align 4
  store ptr %data, ptr %data.addr, align 8
  %this1 = load ptr, ptr %this.addr, align 8
  call void @_ZNSt10lock_guardIRKN18OpenImageIO_v2_6_010ImageInputEEC2ES3_(ptr noundef nonnull align 8 dereferenceable(8) %lock, ptr noundef nonnull align 8 dereferenceable(184) %this1)
  %1 = load i32, ptr %subimage.addr, align 4
  %2 = load i32, ptr %miplevel.addr, align 4
  %call = invoke noundef zeroext i1 @_ZN18OpenImageIO_v2_6_08RLAInput13seek_subimageEii(ptr noundef nonnull align 8 dereferenceable(1024) %this1, i32 noundef %1, i32 noundef %2)
          to label %invoke.cont unwind label %lpad

invoke.cont:                                      ; preds = %entry
  br i1 %call, label %if.end, label %if.then

if.then:                                          ; preds = %invoke.cont
  store i1 false, ptr %retval, align 1
  store i32 1, ptr %cleanup.dest.slot, align 4
  br label %cleanup

lpad:                                             ; preds = %if.then41, %if.then26, %if.then14, %invoke.cont8, %if.end, %entry
  %3 = landingpad { ptr, i32 }
          cleanup
  %4 = extractvalue { ptr, i32 } %3, 0
  store ptr %4, ptr %exn.slot, align 8
  %5 = extractvalue { ptr, i32 } %3, 1
  store i32 %5, ptr %ehselector.slot, align 4
  call void @_ZNSt10lock_guardIRKN18OpenImageIO_v2_6_010ImageInputEED2Ev(ptr noundef nonnull align 8 dereferenceable(8) %lock) #3
  br label %eh.resume

if.end:                                           ; preds = %invoke.cont
  %m_spec = getelementptr inbounds %"class.OpenImageIO_v2_6_0::ImageInput", ptr %this1, i32 0, i32 1
  %height = getelementptr inbounds %"class.OpenImageIO_v2_6_0::ImageSpec", ptr %m_spec, i32 0, i32 4
  %6 = load i32, ptr %height, align 8
  %7 = load i32, ptr %y.addr, align 4
  %m_spec2 = getelementptr inbounds %"class.OpenImageIO_v2_6_0::ImageInput", ptr %this1, i32 0, i32 1
  %y3 = getelementptr inbounds %"class.OpenImageIO_v2_6_0::ImageSpec", ptr %m_spec2, i32 0, i32 1
  %8 = load i32, ptr %y3, align 4
  %sub = sub nsw i32 %7, %8
  %sub4 = sub nsw i32 %6, %sub
  %sub5 = sub nsw i32 %sub4, 1
  store i32 %sub5, ptr %y.addr, align 4
  %m_sot = getelementptr inbounds %"class.OpenImageIO_v2_6_0::RLAInput", ptr %this1, i32 0, i32 7
  %9 = load i32, ptr %y.addr, align 4
  %conv = sext i32 %9 to i64
  %call6 = call noundef nonnull align 4 dereferenceable(4) ptr @_ZNSt6vectorIjSaIjEEixEm(ptr noundef nonnull align 8 dereferenceable(24) %m_sot, i64 noundef %conv) #3
  %10 = load i32, ptr %call6, align 4
  %conv7 = zext i32 %10 to i64
  %call9 = invoke noundef zeroext i1 @_ZN18OpenImageIO_v2_6_010ImageInput6ioseekEli(ptr noundef nonnull align 8 dereferenceable(184) %this1, i64 noundef %conv7, i32 noundef 0)
          to label %invoke.cont8 unwind label %lpad

invoke.cont8:                                     ; preds = %if.end
  %m_spec10 = getelementptr inbounds %"class.OpenImageIO_v2_6_0::ImageInput", ptr %this1, i32 0, i32 1
  %call11 = call noundef i64 @_ZNK18OpenImageIO_v2_6_09ImageSpec14scanline_bytesEb(ptr noundef nonnull align 8 dereferenceable(160) %m_spec10, i1 noundef zeroext true) #3
  store i64 %call11, ptr %size, align 8
  %m_buf = getelementptr inbounds %"class.OpenImageIO_v2_6_0::RLAInput", ptr %this1, i32 0, i32 4
  %11 = load i64, ptr %size, align 8
  invoke void @_ZNSt6vectorIhSaIhEE6resizeEm(ptr noundef nonnull align 8 dereferenceable(24) %m_buf, i64 noundef %11)
          to label %invoke.cont12 unwind label %lpad

invoke.cont12:                                    ; preds = %invoke.cont8
  %m_rla = getelementptr inbounds %"class.OpenImageIO_v2_6_0::RLAInput", ptr %this1, i32 0, i32 2
  %NumOfColorChannels = getelementptr inbounds %"struct.OpenImageIO_v2_6_0::RLA_pvt::RLAHeader", ptr %m_rla, i32 0, i32 10
  %12 = load i16, ptr %NumOfColorChannels, align 4
  %conv13 = sext i16 %12 to i32
  %cmp = icmp sgt i32 %conv13, 0
  br i1 %cmp, label %if.then14, label %if.end22

if.then14:                                        ; preds = %invoke.cont12
  %m_rla15 = getelementptr inbounds %"class.OpenImageIO_v2_6_0::RLAInput", ptr %this1, i32 0, i32 2
  %NumOfColorChannels16 = getelementptr inbounds %"struct.OpenImageIO_v2_6_0::RLA_pvt::RLAHeader", ptr %m_rla15, i32 0, i32 10
  %13 = load i16, ptr %NumOfColorChannels16, align 4
  %m_rla17 = getelementptr inbounds %"class.OpenImageIO_v2_6_0::RLAInput", ptr %this1, i32 0, i32 2
  %NumOfChannelBits = getelementptr inbounds %"struct.OpenImageIO_v2_6_0::RLA_pvt::RLAHeader", ptr %m_rla17, i32 0, i32 32
  %14 = load i16, ptr %NumOfChannelBits, align 2
  %15 = load i32, ptr %y.addr, align 4
  %call19 = invoke noundef zeroext i1 @_ZN18OpenImageIO_v2_6_08RLAInput20decode_channel_groupEissi(ptr noundef nonnull align 8 dereferenceable(1024) %this1, i32 noundef 0, i16 noundef signext %13, i16 noundef signext %14, i32 noundef %15)
          to label %invoke.cont18 unwind label %lpad

invoke.cont18:                                    ; preds = %if.then14
  br i1 %call19, label %if.end21, label %if.then20

if.then20:                                        ; preds = %invoke.cont18
  store i1 false, ptr %retval, align 1
  store i32 1, ptr %cleanup.dest.slot, align 4
  br label %cleanup

if.end21:                                         ; preds = %invoke.cont18
  br label %if.end22

if.end22:                                         ; preds = %if.end21, %invoke.cont12
  %m_rla23 = getelementptr inbounds %"class.OpenImageIO_v2_6_0::RLAInput", ptr %this1, i32 0, i32 2
  %NumOfMatteChannels = getelementptr inbounds %"struct.OpenImageIO_v2_6_0::RLA_pvt::RLAHeader", ptr %m_rla23, i32 0, i32 11
  %16 = load i16, ptr %NumOfMatteChannels, align 2
  %conv24 = sext i16 %16 to i32
  %cmp25 = icmp sgt i32 %conv24, 0
  br i1 %cmp25, label %if.then26, label %if.end37

if.then26:                                        ; preds = %if.end22
  %m_rla27 = getelementptr inbounds %"class.OpenImageIO_v2_6_0::RLAInput", ptr %this1, i32 0, i32 2
  %NumOfColorChannels28 = getelementptr inbounds %"struct.OpenImageIO_v2_6_0::RLA_pvt::RLAHeader", ptr %m_rla27, i32 0, i32 10
  %17 = load i16, ptr %NumOfColorChannels28, align 4
  %conv29 = sext i16 %17 to i32
  %m_rla30 = getelementptr inbounds %"class.OpenImageIO_v2_6_0::RLAInput", ptr %this1, i32 0, i32 2
  %NumOfMatteChannels31 = getelementptr inbounds %"struct.OpenImageIO_v2_6_0::RLA_pvt::RLAHeader", ptr %m_rla30, i32 0, i32 11
  %18 = load i16, ptr %NumOfMatteChannels31, align 2
  %m_rla32 = getelementptr inbounds %"class.OpenImageIO_v2_6_0::RLAInput", ptr %this1, i32 0, i32 2
  %NumOfMatteBits = getelementptr inbounds %"struct.OpenImageIO_v2_6_0::RLA_pvt::RLAHeader", ptr %m_rla32, i32 0, i32 34
  %19 = load i16, ptr %NumOfMatteBits, align 2
  %20 = load i32, ptr %y.addr, align 4
  %call34 = invoke noundef zeroext i1 @_ZN18OpenImageIO_v2_6_08RLAInput20decode_channel_groupEissi(ptr noundef nonnull align 8 dereferenceable(1024) %this1, i32 noundef %conv29, i16 noundef signext %18, i16 noundef signext %19, i32 noundef %20)
          to label %invoke.cont33 unwind label %lpad

invoke.cont33:                                    ; preds = %if.then26
  br i1 %call34, label %if.end36, label %if.then35

if.then35:                                        ; preds = %invoke.cont33
  store i1 false, ptr %retval, align 1
  store i32 1, ptr %cleanup.dest.slot, align 4
  br label %cleanup

if.end36:                                         ; preds = %invoke.cont33
  br label %if.end37

if.end37:                                         ; preds = %if.end36, %if.end22
  %m_rla38 = getelementptr inbounds %"class.OpenImageIO_v2_6_0::RLAInput", ptr %this1, i32 0, i32 2
  %NumOfAuxChannels = getelementptr inbounds %"struct.OpenImageIO_v2_6_0::RLA_pvt::RLAHeader", ptr %m_rla38, i32 0, i32 12
  %21 = load i16, ptr %NumOfAuxChannels, align 8
  %conv39 = sext i16 %21 to i32
  %cmp40 = icmp sgt i32 %conv39, 0
  br i1 %cmp40, label %if.then41, label %if.end55

if.then41:                                        ; preds = %if.end37
  %m_rla42 = getelementptr inbounds %"class.OpenImageIO_v2_6_0::RLAInput", ptr %this1, i32 0, i32 2
  %NumOfColorChannels43 = getelementptr inbounds %"struct.OpenImageIO_v2_6_0::RLA_pvt::RLAHeader", ptr %m_rla42, i32 0, i32 10
  %22 = load i16, ptr %NumOfColorChannels43, align 4
  %conv44 = sext i16 %22 to i32
  %m_rla45 = getelementptr inbounds %"class.OpenImageIO_v2_6_0::RLAInput", ptr %this1, i32 0, i32 2
  %NumOfMatteChannels46 = getelementptr inbounds %"struct.OpenImageIO_v2_6_0::RLA_pvt::RLAHeader", ptr %m_rla45, i32 0, i32 11
  %23 = load i16, ptr %NumOfMatteChannels46, align 2
  %conv47 = sext i16 %23 to i32
  %add = add nsw i32 %conv44, %conv47
  %m_rla48 = getelementptr inbounds %"class.OpenImageIO_v2_6_0::RLAInput", ptr %this1, i32 0, i32 2
  %NumOfAuxChannels49 = getelementptr inbounds %"struct.OpenImageIO_v2_6_0::RLA_pvt::RLAHeader", ptr %m_rla48, i32 0, i32 12
  %24 = load i16, ptr %NumOfAuxChannels49, align 8
  %m_rla50 = getelementptr inbounds %"class.OpenImageIO_v2_6_0::RLAInput", ptr %this1, i32 0, i32 2
  %NumOfAuxBits = getelementptr inbounds %"struct.OpenImageIO_v2_6_0::RLA_pvt::RLAHeader", ptr %m_rla50, i32 0, i32 36
  %25 = load i16, ptr %NumOfAuxBits, align 2
  %26 = load i32, ptr %y.addr, align 4
  %call52 = invoke noundef zeroext i1 @_ZN18OpenImageIO_v2_6_08RLAInput20decode_channel_groupEissi(ptr noundef nonnull align 8 dereferenceable(1024) %this1, i32 noundef %add, i16 noundef signext %24, i16 noundef signext %25, i32 noundef %26)
          to label %invoke.cont51 unwind label %lpad

invoke.cont51:                                    ; preds = %if.then41
  br i1 %call52, label %if.end54, label %if.then53

if.then53:                                        ; preds = %invoke.cont51
  store i1 false, ptr %retval, align 1
  store i32 1, ptr %cleanup.dest.slot, align 4
  br label %cleanup

if.end54:                                         ; preds = %invoke.cont51
  br label %if.end55

if.end55:                                         ; preds = %if.end54, %if.end37
  %27 = load ptr, ptr %data.addr, align 8
  %m_buf56 = getelementptr inbounds %"class.OpenImageIO_v2_6_0::RLAInput", ptr %this1, i32 0, i32 4
  %call57 = call noundef nonnull align 1 dereferenceable(1) ptr @_ZNSt6vectorIhSaIhEEixEm(ptr noundef nonnull align 8 dereferenceable(24) %m_buf56, i64 noundef 0) #3
  %28 = load i64, ptr %size, align 8
  call void @llvm.memcpy.p0.p0.i64(ptr align 1 %27, ptr align 1 %call57, i64 %28, i1 false)
  store i1 true, ptr %retval, align 1
  store i32 1, ptr %cleanup.dest.slot, align 4
  br label %cleanup

cleanup:                                          ; preds = %if.end55, %if.then53, %if.then35, %if.then20, %if.then
  call void @_ZNSt10lock_guardIRKN18OpenImageIO_v2_6_010ImageInputEED2Ev(ptr noundef nonnull align 8 dereferenceable(8) %lock) #3
  %29 = load i1, ptr %retval, align 1
  ret i1 %29

eh.resume:                                        ; preds = %lpad
  %exn = load ptr, ptr %exn.slot, align 8
  %sel = load i32, ptr %ehselector.slot, align 4
  %lpad.val = insertvalue { ptr, i32 } poison, ptr %exn, 0
  %lpad.val58 = insertvalue { ptr, i32 } %lpad.val, i32 %sel, 1
  resume { ptr, i32 } %lpad.val58
}