; Function Attrs: mustprogress uwtable
define hidden noundef zeroext i1 @_ZN18OpenImageIO_v2_6_08RLAInput20read_native_scanlineEiiiiPv(ptr noundef nonnull align 8 dereferenceable(1024) %this, i32 noundef %subimage, i32 noundef %miplevel, i32 noundef %y, i32 %0, ptr nocapture noundef writeonly %data) unnamed_addr #5 align 2 personality ptr @__gxx_personality_v0 {
entry:
  tail call void @_ZNK18OpenImageIO_v2_6_010ImageInput4lockEv(ptr noundef nonnull align 8 dereferenceable(184) %this)
  %call = invoke noundef zeroext i1 @_ZN18OpenImageIO_v2_6_08RLAInput13seek_subimageEii(ptr noundef nonnull align 8 dereferenceable(1024) %this, i32 noundef %subimage, i32 noundef %miplevel)
          to label %invoke.cont unwind label %lpad

invoke.cont:                                      ; preds = %entry
  br i1 %call, label %if.end, label %cleanup

lpad:                                             ; preds = %if.then41, %if.then26, %if.then14, %invoke.cont8, %if.end, %entry
  %1 = landingpad { ptr, i32 }
          cleanup
  invoke void @_ZNK18OpenImageIO_v2_6_010ImageInput6unlockEv(ptr noundef nonnull align 8 dereferenceable(184) %this)
          to label %_ZNSt10lock_guardIRKN18OpenImageIO_v2_6_010ImageInputEED2Ev.exit unwind label %terminate.lpad.i

terminate.lpad.i:                                 ; preds = %lpad
  %2 = landingpad { ptr, i32 }
          catch ptr null
  %3 = extractvalue { ptr, i32 } %2, 0
  tail call void @__clang_call_terminate(ptr %3) #23
  unreachable

_ZNSt10lock_guardIRKN18OpenImageIO_v2_6_010ImageInputEED2Ev.exit: ; preds = %lpad
  resume { ptr, i32 } %1

if.end:                                           ; preds = %invoke.cont
  %height = getelementptr inbounds i8, ptr %this, i64 24
  %4 = load i32, ptr %height, align 8
  %y3 = getelementptr inbounds i8, ptr %this, i64 12
  %5 = load i32, ptr %y3, align 4
  %sub.neg = xor i32 %y, -1
  %sub4 = add i32 %4, %sub.neg
  %sub5 = add i32 %sub4, %5
  %m_sot = getelementptr inbounds i8, ptr %this, i64 992
  %conv = sext i32 %sub5 to i64
  %6 = load ptr, ptr %m_sot, align 8
  %add.ptr.i = getelementptr inbounds i32, ptr %6, i64 %conv
  %7 = load i32, ptr %add.ptr.i, align 4
  %conv7 = zext i32 %7 to i64
  %call9 = invoke noundef zeroext i1 @_ZN18OpenImageIO_v2_6_010ImageInput6ioseekEli(ptr noundef nonnull align 8 dereferenceable(184) %this, i64 noundef %conv7, i32 noundef 0)
          to label %invoke.cont8 unwind label %lpad

invoke.cont8:                                     ; preds = %if.end
  %m_spec = getelementptr inbounds i8, ptr %this, i64 8
  %call11 = tail call noundef i64 @_ZNK18OpenImageIO_v2_6_09ImageSpec14scanline_bytesEb(ptr noundef nonnull align 8 dereferenceable(160) %m_spec, i1 noundef zeroext true) #21
  %m_buf = getelementptr inbounds i8, ptr %this, i64 960
  invoke void @_ZNSt6vectorIhSaIhEE6resizeEm(ptr noundef nonnull align 8 dereferenceable(24) %m_buf, i64 noundef %call11)
          to label %invoke.cont12 unwind label %lpad

invoke.cont12:                                    ; preds = %invoke.cont8
  %NumOfColorChannels = getelementptr inbounds i8, ptr %this, i64 236
  %8 = load i16, ptr %NumOfColorChannels, align 4
  %cmp = icmp sgt i16 %8, 0
  br i1 %cmp, label %if.then14, label %if.end22

if.then14:                                        ; preds = %invoke.cont12
  %NumOfChannelBits = getelementptr inbounds i8, ptr %this, i64 874
  %9 = load i16, ptr %NumOfChannelBits, align 2
  %call19 = invoke noundef zeroext i1 @_ZN18OpenImageIO_v2_6_08RLAInput20decode_channel_groupEissi(ptr noundef nonnull align 8 dereferenceable(1024) %this, i32 noundef 0, i16 noundef signext %8, i16 noundef signext %9, i32 noundef %sub5)
          to label %invoke.cont18 unwind label %lpad

invoke.cont18:                                    ; preds = %if.then14
  br i1 %call19, label %if.end22, label %cleanup

if.end22:                                         ; preds = %invoke.cont18, %invoke.cont12
  %NumOfMatteChannels = getelementptr inbounds i8, ptr %this, i64 238
  %10 = load i16, ptr %NumOfMatteChannels, align 2
  %cmp25 = icmp sgt i16 %10, 0
  br i1 %cmp25, label %if.then26, label %if.end37

if.then26:                                        ; preds = %if.end22
  %11 = load i16, ptr %NumOfColorChannels, align 4
  %conv29 = sext i16 %11 to i32
  %NumOfMatteBits = getelementptr inbounds i8, ptr %this, i64 878
  %12 = load i16, ptr %NumOfMatteBits, align 2
  %call34 = invoke noundef zeroext i1 @_ZN18OpenImageIO_v2_6_08RLAInput20decode_channel_groupEissi(ptr noundef nonnull align 8 dereferenceable(1024) %this, i32 noundef %conv29, i16 noundef signext %10, i16 noundef signext %12, i32 noundef %sub5)
          to label %invoke.cont33 unwind label %lpad

invoke.cont33:                                    ; preds = %if.then26
  br i1 %call34, label %if.end37, label %cleanup

if.end37:                                         ; preds = %invoke.cont33, %if.end22
  %NumOfAuxChannels = getelementptr inbounds i8, ptr %this, i64 240
  %13 = load i16, ptr %NumOfAuxChannels, align 8
  %cmp40 = icmp sgt i16 %13, 0
  br i1 %cmp40, label %if.then41, label %if.end55

if.then41:                                        ; preds = %if.end37
  %14 = load i16, ptr %NumOfColorChannels, align 4
  %conv44 = sext i16 %14 to i32
  %15 = load i16, ptr %NumOfMatteChannels, align 2
  %conv47 = sext i16 %15 to i32
  %add = add nsw i32 %conv47, %conv44
  %NumOfAuxBits = getelementptr inbounds i8, ptr %this, i64 882
  %16 = load i16, ptr %NumOfAuxBits, align 2
  %call52 = invoke noundef zeroext i1 @_ZN18OpenImageIO_v2_6_08RLAInput20decode_channel_groupEissi(ptr noundef nonnull align 8 dereferenceable(1024) %this, i32 noundef %add, i16 noundef signext %13, i16 noundef signext %16, i32 noundef %sub5)
          to label %invoke.cont51 unwind label %lpad

invoke.cont51:                                    ; preds = %if.then41
  br i1 %call52, label %if.end55, label %cleanup

if.end55:                                         ; preds = %invoke.cont51, %if.end37
  %17 = load ptr, ptr %m_buf, align 8
  tail call void @llvm.memcpy.p0.p0.i64(ptr align 1 %data, ptr nonnull align 1 %17, i64 %call11, i1 false)
  br label %cleanup

cleanup:                                          ; preds = %invoke.cont51, %invoke.cont33, %invoke.cont18, %invoke.cont, %if.end55
  %retval.0 = phi i1 [ true, %if.end55 ], [ false, %invoke.cont ], [ false, %invoke.cont18 ], [ false, %invoke.cont33 ], [ false, %invoke.cont51 ]
  invoke void @_ZNK18OpenImageIO_v2_6_010ImageInput6unlockEv(ptr noundef nonnull align 8 dereferenceable(184) %this)
          to label %_ZNSt10lock_guardIRKN18OpenImageIO_v2_6_010ImageInputEED2Ev.exit7 unwind label %terminate.lpad.i6

terminate.lpad.i6:                                ; preds = %cleanup
  %18 = landingpad { ptr, i32 }
          catch ptr null
  %19 = extractvalue { ptr, i32 } %18, 0
  tail call void @__clang_call_terminate(ptr %19) #23
  unreachable

_ZNSt10lock_guardIRKN18OpenImageIO_v2_6_010ImageInputEED2Ev.exit7: ; preds = %cleanup
  ret i1 %retval.0
}